target datalayout = "e-m:e-p270:32:32-p271:32:32-p272:64:64-i64:64-i128:128-f80:128-n8:16:32:64-S128"
target triple = "x86_64-pc-linux-gnu"

%struct.Map_NodeStruct_t_ = type { ptr, ptr, i32, i32, i32, i32, [3 x i32], [3 x float], float, ptr, ptr, ptr, ptr, [2 x %struct.Map_TimeStruct_t_], [2 x %struct.Map_TimeStruct_t_], [2 x ptr], ptr, ptr, ptr }
%struct.Map_TimeStruct_t_ = type { float, float, float }
%struct.Map_ManStruct_t_ = type { ptr, i32, ptr, i32, ptr, i32, i32, ptr, ptr, ptr, ptr, ptr, ptr, ptr, ptr, i32, i32, i32, i32, float, float, float, float, i32, i32, float, i32, i32, i32, i32, ptr, [6 x [2 x i32]], [10 x [32 x i32]], [32 x i32], [32 x i32], ptr, ptr, ptr, ptr, ptr, ptr, i32, i32, i32, i32, i32, i32, i64, i64, i64, i64, i64, i64, i64, i64, i64, i64, i64 }
%struct.Map_NodeVecStruct_t_ = type { ptr, i32, i32 }

@.str.12 = private unnamed_addr constant [60 x i8] c"Maximum level: Original = %d. Reduced due to choices = %d.\0A\00", align 1
@.str.13 = private unnamed_addr constant [55 x i8] c"Choice stats:  Choice nodes = %d. Total choices = %d.\0A\00", align 1

; Function Attrs: nounwind uwtable
define i32 @Map_MappingGetMaxLevel(ptr noundef %0) #0 {
  %2 = alloca ptr, align 8
  %3 = alloca i32, align 4
  %4 = alloca i32, align 4
  store ptr %0, ptr %2, align 8, !tbaa !20
  call void @llvm.lifetime.start.p0(i64 4, ptr %3) #4
  call void @llvm.lifetime.start.p0(i64 4, ptr %4) #4
  store i32 0, ptr %3, align 4, !tbaa !10
  store i32 0, ptr %4, align 4, !tbaa !10
  br label %5

5:                                                ; preds = %47, %1
  %6 = load i32, ptr %4, align 4, !tbaa !10
  %7 = load ptr, ptr %2, align 8, !tbaa !20
  %8 = getelementptr inbounds nuw %struct.Map_ManStruct_t_, ptr %7, i32 0, i32 5
  %9 = load i32, ptr %8, align 8, !tbaa !21
  %10 = icmp slt i32 %6, %9
  br i1 %10, label %11, label %50

11:                                               ; preds = %5
  %12 = load i32, ptr %3, align 4, !tbaa !10
  %13 = load ptr, ptr %2, align 8, !tbaa !20
  %14 = getelementptr inbounds nuw %struct.Map_ManStruct_t_, ptr %13, i32 0, i32 4
  %15 = load ptr, ptr %14, align 8, !tbaa !32
  %16 = load i32, ptr %4, align 4, !tbaa !10
  %17 = sext i32 %16 to i64
  %18 = getelementptr inbounds ptr, ptr %15, i64 %17
  %19 = load ptr, ptr %18, align 8, !tbaa !3
  %20 = ptrtoint ptr %19 to i64
  %21 = and i64 %20, -2
  %22 = inttoptr i64 %21 to ptr
  %23 = getelementptr inbounds nuw %struct.Map_NodeStruct_t_, ptr %22, i32 0, i32 5
  %24 = load i32, ptr %23, align 4
  %25 = lshr i32 %24, 5
  %26 = and i32 %25, 65535
  %27 = icmp ugt i32 %12, %26
  br i1 %27, label %28, label %30

28:                                               ; preds = %11
  %29 = load i32, ptr %3, align 4, !tbaa !10
  br label %45

30:                                               ; preds = %11
  %31 = load ptr, ptr %2, align 8, !tbaa !20
  %32 = getelementptr inbounds nuw %struct.Map_ManStruct_t_, ptr %31, i32 0, i32 4
  %33 = load ptr, ptr %32, align 8, !tbaa !32
  %34 = load i32, ptr %4, align 4, !tbaa !10
  %35 = sext i32 %34 to i64
  %36 = getelementptr inbounds ptr, ptr %33, i64 %35
  %37 = load ptr, ptr %36, align 8, !tbaa !3
  %38 = ptrtoint ptr %37 to i64
  %39 = and i64 %38, -2
  %40 = inttoptr i64 %39 to ptr
  %41 = getelementptr inbounds nuw %struct.Map_NodeStruct_t_, ptr %40, i32 0, i32 5
  %42 = load i32, ptr %41, align 4
  %43 = lshr i32 %42, 5
  %44 = and i32 %43, 65535
  br label %45

45:                                               ; preds = %30, %28
  %46 = phi i32 [ %29, %28 ], [ %44, %30 ]
  store i32 %46, ptr %3, align 4, !tbaa !10
  br label %47

47:                                               ; preds = %45
  %48 = load i32, ptr %4, align 4, !tbaa !10
  %49 = add nsw i32 %48, 1
  store i32 %49, ptr %4, align 4, !tbaa !10
  br label %5, !llvm.loop !97

50:                                               ; preds = %5
  %51 = load i32, ptr %3, align 4, !tbaa !10
  call void @llvm.lifetime.end.p0(i64 4, ptr %4) #4
  call void @llvm.lifetime.end.p0(i64 4, ptr %3) #4
  ret i32 %51
}

; Function Attrs: nounwind uwtable
define void @Map_MappingReportChoices(ptr noundef %0) #0 {
  %2 = alloca ptr, align 8
  %3 = alloca ptr, align 8
  %4 = alloca ptr, align 8
  %5 = alloca i32, align 4
  %6 = alloca i32, align 4
  %7 = alloca i32, align 4
  %8 = alloca i32, align 4
  %9 = alloca i32, align 4
  store ptr %0, ptr %2, align 8, !tbaa !20
  call void @llvm.lifetime.start.p0(i64 8, ptr %3) #4
  call void @llvm.lifetime.start.p0(i64 8, ptr %4) #4
  call void @llvm.lifetime.start.p0(i64 4, ptr %5) #4
  call void @llvm.lifetime.start.p0(i64 4, ptr %6) #4
  call void @llvm.lifetime.start.p0(i64 4, ptr %7) #4
  call void @llvm.lifetime.start.p0(i64 4, ptr %8) #4
  call void @llvm.lifetime.start.p0(i64 4, ptr %9) #4
  %10 = load ptr, ptr %2, align 8, !tbaa !20
  %11 = call i32 @Map_MappingGetMaxLevel(ptr noundef %10)
  store i32 %11, ptr %8, align 4, !tbaa !10
  %12 = load ptr, ptr %2, align 8, !tbaa !20
  %13 = getelementptr inbounds nuw %struct.Map_ManStruct_t_, ptr %12, i32 0, i32 26
  %14 = load i32, ptr %13, align 4, !tbaa !99
  %15 = add nsw i32 %14, 1
  store i32 %15, ptr %13, align 4, !tbaa !99
  store i32 0, ptr %7, align 4, !tbaa !10
  br label %16

16:                                               ; preds = %35, %1
  %17 = load i32, ptr %7, align 4, !tbaa !10
  %18 = load ptr, ptr %2, align 8, !tbaa !20
  %19 = getelementptr inbounds nuw %struct.Map_ManStruct_t_, ptr %18, i32 0, i32 5
  %20 = load i32, ptr %19, align 8, !tbaa !21
  %21 = icmp slt i32 %17, %20
  br i1 %21, label %22, label %38

22:                                               ; preds = %16
  %23 = load ptr, ptr %2, align 8, !tbaa !20
  %24 = load ptr, ptr %2, align 8, !tbaa !20
  %25 = getelementptr inbounds nuw %struct.Map_ManStruct_t_, ptr %24, i32 0, i32 4
  %26 = load ptr, ptr %25, align 8, !tbaa !32
  %27 = load i32, ptr %7, align 4, !tbaa !10
  %28 = sext i32 %27 to i64
  %29 = getelementptr inbounds ptr, ptr %26, i64 %28
  %30 = load ptr, ptr %29, align 8, !tbaa !3
  %31 = ptrtoint ptr %30 to i64
  %32 = and i64 %31, -2
  %33 = inttoptr i64 %32 to ptr
  %34 = call i32 @Map_MappingUpdateLevel_rec(ptr noundef %23, ptr noundef %33, i32 noundef 0)
  br label %35

35:                                               ; preds = %22
  %36 = load i32, ptr %7, align 4, !tbaa !10
  %37 = add nsw i32 %36, 1
  store i32 %37, ptr %7, align 4, !tbaa !10
  br label %16, !llvm.loop !102

38:                                               ; preds = %16
  %39 = load ptr, ptr %2, align 8, !tbaa !20
  %40 = call i32 @Map_MappingGetMaxLevel(ptr noundef %39)
  store i32 %40, ptr %9, align 4, !tbaa !10
  store i32 0, ptr %6, align 4, !tbaa !10
  store i32 0, ptr %5, align 4, !tbaa !10
  store i32 0, ptr %7, align 4, !tbaa !10
  br label %41

41:                                               ; preds = %84, %38
  %42 = load i32, ptr %7, align 4, !tbaa !10
  %43 = load ptr, ptr %2, align 8, !tbaa !20
  %44 = getelementptr inbounds nuw %struct.Map_ManStruct_t_, ptr %43, i32 0, i32 8
  %45 = load ptr, ptr %44, align 8, !tbaa !92
  %46 = getelementptr inbounds nuw %struct.Map_NodeVecStruct_t_, ptr %45, i32 0, i32 1
  %47 = load i32, ptr %46, align 8, !tbaa !35
  %48 = icmp slt i32 %42, %47
  br i1 %48, label %49, label %87

49:                                               ; preds = %41
  %50 = load ptr, ptr %2, align 8, !tbaa !20
  %51 = getelementptr inbounds nuw %struct.Map_ManStruct_t_, ptr %50, i32 0, i32 8
  %52 = load ptr, ptr %51, align 8, !tbaa !92
  %53 = getelementptr inbounds nuw %struct.Map_NodeVecStruct_t_, ptr %52, i32 0, i32 0
  %54 = load ptr, ptr %53, align 8, !tbaa !37
  %55 = load i32, ptr %7, align 4, !tbaa !10
  %56 = sext i32 %55 to i64
  %57 = getelementptr inbounds ptr, ptr %54, i64 %56
  %58 = load ptr, ptr %57, align 8, !tbaa !3
  store ptr %58, ptr %3, align 8, !tbaa !3
  %59 = load ptr, ptr %3, align 8, !tbaa !3
  %60 = getelementptr inbounds nuw %struct.Map_NodeStruct_t_, ptr %59, i32 0, i32 12
  %61 = load ptr, ptr %60, align 8, !tbaa !63
  %62 = icmp eq ptr %61, null
  br i1 %62, label %63, label %83

63:                                               ; preds = %49
  %64 = load ptr, ptr %3, align 8, !tbaa !3
  %65 = getelementptr inbounds nuw %struct.Map_NodeStruct_t_, ptr %64, i32 0, i32 11
  %66 = load ptr, ptr %65, align 8, !tbaa !19
  %67 = icmp ne ptr %66, null
  br i1 %67, label %68, label %83

68:                                               ; preds = %63
  %69 = load i32, ptr %5, align 4, !tbaa !10
  %70 = add nsw i32 %69, 1
  store i32 %70, ptr %5, align 4, !tbaa !10
  %71 = load ptr, ptr %3, align 8, !tbaa !3
  store ptr %71, ptr %4, align 8, !tbaa !3
  br label %72

72:                                               ; preds = %78, %68
  %73 = load ptr, ptr %4, align 8, !tbaa !3
  %74 = icmp ne ptr %73, null
  br i1 %74, label %75, label %82

75:                                               ; preds = %72
  %76 = load i32, ptr %6, align 4, !tbaa !10
  %77 = add nsw i32 %76, 1
  store i32 %77, ptr %6, align 4, !tbaa !10
  br label %78

78:                                               ; preds = %75
  %79 = load ptr, ptr %4, align 8, !tbaa !3
  %80 = getelementptr inbounds nuw %struct.Map_NodeStruct_t_, ptr %79, i32 0, i32 11
  %81 = load ptr, ptr %80, align 8, !tbaa !19
  store ptr %81, ptr %4, align 8, !tbaa !3
  br label %72, !llvm.loop !103

82:                                               ; preds = %72
  br label %83

83:                                               ; preds = %82, %63, %49
  br label %84

84:                                               ; preds = %83
  %85 = load i32, ptr %7, align 4, !tbaa !10
  %86 = add nsw i32 %85, 1
  store i32 %86, ptr %7, align 4, !tbaa !10
  br label %41, !llvm.loop !104

87:                                               ; preds = %41
  %88 = load i32, ptr %8, align 4, !tbaa !10
  %89 = load i32, ptr %9, align 4, !tbaa !10
  %90 = call i32 (ptr, ...) @printf(ptr noundef @.str.12, i32 noundef %88, i32 noundef %89)
  %91 = load i32, ptr %5, align 4, !tbaa !10
  %92 = load i32, ptr %6, align 4, !tbaa !10
  %93 = call i32 (ptr, ...) @printf(ptr noundef @.str.13, i32 noundef %91, i32 noundef %92)
  call void @llvm.lifetime.end.p0(i64 4, ptr %9) #4
  call void @llvm.lifetime.end.p0(i64 4, ptr %8) #4
  call void @llvm.lifetime.end.p0(i64 4, ptr %7) #4
  call void @llvm.lifetime.end.p0(i64 4, ptr %6) #4
  call void @llvm.lifetime.end.p0(i64 4, ptr %5) #4
  call void @llvm.lifetime.end.p0(i64 8, ptr %4) #4
  call void @llvm.lifetime.end.p0(i64 8, ptr %3) #4
  ret void
}