; Function Attrs: nounwind uwtable
define void @Map_MappingReportChoices(ptr noundef %0) local_unnamed_addr #0 {
  %2 = getelementptr inbounds nuw i8, ptr %0, i64 40
  %3 = load i32, ptr %2, align 8, !tbaa !16
  %4 = icmp sgt i32 %3, 0
  br i1 %4, label %.lr.ph.i, label %Map_MappingGetMaxLevel.exit.thread

Map_MappingGetMaxLevel.exit.thread:               ; preds = %1
  %5 = getelementptr inbounds nuw i8, ptr %0, i64 156
  %6 = load i32, ptr %5, align 4, !tbaa !90
  %7 = add nsw i32 %6, 1
  store i32 %7, ptr %5, align 4, !tbaa !90
  br label %Map_MappingGetMaxLevel.exit38

.lr.ph.i:                                         ; preds = %1
  %8 = getelementptr inbounds nuw i8, ptr %0, i64 32
  %9 = load ptr, ptr %8, align 8, !tbaa !30
  %wide.trip.count.i = zext nneg i32 %3 to i64
  br label %10

10:                                               ; preds = %10, %.lr.ph.i
  %indvars.iv.i = phi i64 [ 0, %.lr.ph.i ], [ %indvars.iv.next.i, %10 ]
  %.0911.i = phi i32 [ 0, %.lr.ph.i ], [ %.09..i, %10 ]
  %11 = getelementptr inbounds nuw ptr, ptr %9, i64 %indvars.iv.i
  %12 = load ptr, ptr %11, align 8, !tbaa !31
  %13 = ptrtoint ptr %12 to i64
  %14 = and i64 %13, -2
  %15 = inttoptr i64 %14 to ptr
  %16 = getelementptr inbounds nuw i8, ptr %15, i64 28
  %17 = load i32, ptr %16, align 4
  %18 = lshr i32 %17, 5
  %19 = and i32 %18, 65535
  %.09..i = tail call i32 @llvm.umax.i32(i32 %.0911.i, i32 %19)
  %indvars.iv.next.i = add nuw nsw i64 %indvars.iv.i, 1
  %exitcond.not.i = icmp eq i64 %indvars.iv.next.i, %wide.trip.count.i
  br i1 %exitcond.not.i, label %Map_MappingGetMaxLevel.exit, label %10, !llvm.loop !88

Map_MappingGetMaxLevel.exit:                      ; preds = %10
  %20 = getelementptr inbounds nuw i8, ptr %0, i64 156
  %21 = load i32, ptr %20, align 4, !tbaa !90
  %22 = add nsw i32 %21, 1
  store i32 %22, ptr %20, align 4, !tbaa !90
  %23 = getelementptr inbounds nuw i8, ptr %0, i64 32
  br label %24

24:                                               ; preds = %Map_MappingGetMaxLevel.exit, %24
  %indvars.iv = phi i64 [ 0, %Map_MappingGetMaxLevel.exit ], [ %indvars.iv.next, %24 ]
  %25 = load ptr, ptr %23, align 8, !tbaa !30
  %26 = getelementptr inbounds nuw ptr, ptr %25, i64 %indvars.iv
  %27 = load ptr, ptr %26, align 8, !tbaa !31
  %28 = ptrtoint ptr %27 to i64
  %29 = and i64 %28, -2
  %30 = inttoptr i64 %29 to ptr
  %31 = tail call i32 @Map_MappingUpdateLevel_rec(ptr noundef nonnull %0, ptr noundef %30, i32 noundef 0)
  %indvars.iv.next = add nuw nsw i64 %indvars.iv, 1
  %32 = load i32, ptr %2, align 8, !tbaa !16
  %33 = sext i32 %32 to i64
  %34 = icmp slt i64 %indvars.iv.next, %33
  br i1 %34, label %24, label %._crit_edge, !llvm.loop !93

._crit_edge:                                      ; preds = %24
  %35 = icmp sgt i32 %32, 0
  br i1 %35, label %.lr.ph.i31, label %Map_MappingGetMaxLevel.exit38

.lr.ph.i31:                                       ; preds = %._crit_edge
  %36 = getelementptr inbounds nuw i8, ptr %0, i64 32
  %37 = load ptr, ptr %36, align 8, !tbaa !30
  %wide.trip.count.i32 = zext nneg i32 %32 to i64
  br label %38

38:                                               ; preds = %38, %.lr.ph.i31
  %indvars.iv.i33 = phi i64 [ 0, %.lr.ph.i31 ], [ %indvars.iv.next.i36, %38 ]
  %.0911.i34 = phi i32 [ 0, %.lr.ph.i31 ], [ %.09..i35, %38 ]
  %39 = getelementptr inbounds nuw ptr, ptr %37, i64 %indvars.iv.i33
  %40 = load ptr, ptr %39, align 8, !tbaa !31
  %41 = ptrtoint ptr %40 to i64
  %42 = and i64 %41, -2
  %43 = inttoptr i64 %42 to ptr
  %44 = getelementptr inbounds nuw i8, ptr %43, i64 28
  %45 = load i32, ptr %44, align 4
  %46 = lshr i32 %45, 5
  %47 = and i32 %46, 65535
  %.09..i35 = tail call i32 @llvm.umax.i32(i32 %.0911.i34, i32 %47)
  %indvars.iv.next.i36 = add nuw nsw i64 %indvars.iv.i33, 1
  %exitcond.not.i37 = icmp eq i64 %indvars.iv.next.i36, %wide.trip.count.i32
  br i1 %exitcond.not.i37, label %Map_MappingGetMaxLevel.exit38, label %38, !llvm.loop !88

Map_MappingGetMaxLevel.exit38:                    ; preds = %38, %Map_MappingGetMaxLevel.exit.thread, %._crit_edge
  %.09.lcssa.i6063 = phi i32 [ %.09..i, %._crit_edge ], [ 0, %Map_MappingGetMaxLevel.exit.thread ], [ %.09..i, %38 ]
  %.09.lcssa.i30 = phi i32 [ 0, %._crit_edge ], [ 0, %Map_MappingGetMaxLevel.exit.thread ], [ %.09..i35, %38 ]
  %48 = getelementptr inbounds nuw i8, ptr %0, i64 56
  %49 = load ptr, ptr %48, align 8, !tbaa !85
  %50 = getelementptr inbounds nuw i8, ptr %49, i64 8
  %51 = load i32, ptr %50, align 8, !tbaa !28
  %52 = icmp sgt i32 %51, 0
  br i1 %52, label %.lr.ph49, label %._crit_edge50

.lr.ph49:                                         ; preds = %Map_MappingGetMaxLevel.exit38
  %53 = load ptr, ptr %49, align 8, !tbaa !34
  %wide.trip.count = zext nneg i32 %51 to i64
  br label %54

54:                                               ; preds = %.lr.ph49, %.loopexit
  %indvars.iv56 = phi i64 [ 0, %.lr.ph49 ], [ %indvars.iv.next57, %.loopexit ]
  %.02448 = phi i32 [ 0, %.lr.ph49 ], [ %.1, %.loopexit ]
  %.02746 = phi i32 [ 0, %.lr.ph49 ], [ %.2, %.loopexit ]
  %55 = getelementptr inbounds nuw ptr, ptr %53, i64 %indvars.iv56
  %56 = load ptr, ptr %55, align 8, !tbaa !31
  %57 = getelementptr inbounds nuw i8, ptr %56, i64 88
  %58 = load ptr, ptr %57, align 8, !tbaa !60
  %59 = icmp eq ptr %58, null
  br i1 %59, label %60, label %.loopexit

60:                                               ; preds = %54
  %61 = getelementptr inbounds nuw i8, ptr %56, i64 80
  %62 = load ptr, ptr %61, align 8, !tbaa !15
  %.not = icmp eq ptr %62, null
  br i1 %.not, label %.loopexit, label %.lr.ph44.preheader

.lr.ph44.preheader:                               ; preds = %60
  %63 = add nsw i32 %.02448, 1
  br label %.lr.ph44

.lr.ph44:                                         ; preds = %.lr.ph44.preheader, %.lr.ph44
  %.042 = phi ptr [ %66, %.lr.ph44 ], [ %56, %.lr.ph44.preheader ]
  %.12841 = phi i32 [ %64, %.lr.ph44 ], [ %.02746, %.lr.ph44.preheader ]
  %64 = add nsw i32 %.12841, 1
  %65 = getelementptr inbounds nuw i8, ptr %.042, i64 80
  %66 = load ptr, ptr %65, align 8, !tbaa !15
  %.not29 = icmp eq ptr %66, null
  br i1 %.not29, label %.loopexit, label %.lr.ph44, !llvm.loop !94

.loopexit:                                        ; preds = %.lr.ph44, %54, %60
  %.2 = phi i32 [ %.02746, %60 ], [ %.02746, %54 ], [ %64, %.lr.ph44 ]
  %.1 = phi i32 [ %.02448, %60 ], [ %.02448, %54 ], [ %63, %.lr.ph44 ]
  %indvars.iv.next57 = add nuw nsw i64 %indvars.iv56, 1
  %exitcond.not = icmp eq i64 %indvars.iv.next57, %wide.trip.count
  br i1 %exitcond.not, label %._crit_edge50, label %54, !llvm.loop !95

._crit_edge50:                                    ; preds = %.loopexit, %Map_MappingGetMaxLevel.exit38
  %.027.lcssa = phi i32 [ 0, %Map_MappingGetMaxLevel.exit38 ], [ %.2, %.loopexit ]
  %.024.lcssa = phi i32 [ 0, %Map_MappingGetMaxLevel.exit38 ], [ %.1, %.loopexit ]
  %67 = tail call i32 (ptr, ...) @printf(ptr noundef nonnull dereferenceable(1) @.str.12, i32 noundef %.09.lcssa.i6063, i32 noundef %.09.lcssa.i30)
  %68 = tail call i32 (ptr, ...) @printf(ptr noundef nonnull dereferenceable(1) @.str.13, i32 noundef %.024.lcssa, i32 noundef %.027.lcssa)
  ret void
}